; Function Attrs: mustprogress uwtable
define void @_ZN3zmq15ipc_connecter_t9out_eventEv(ptr noundef nonnull align 8 dereferenceable(1544) %this) unnamed_addr #0 align 2 personality ptr @__gxx_personality_v0 {
entry:
  %ref.tmp = alloca %"class.std::__cxx11::basic_string", align 8
  %call = tail call noundef i32 @_ZN3zmq15ipc_connecter_t7connectEv(ptr noundef nonnull align 8 dereferenceable(1544) %this)
  tail call void @_ZN3zmq23stream_connecter_base_t9rm_handleEv(ptr noundef nonnull align 8 dereferenceable(1544) %this)
  %cmp = icmp eq i32 %call, -1
  br i1 %cmp, label %if.then, label %if.end

if.then:                                          ; preds = %entry
  tail call void @_ZN3zmq23stream_connecter_base_t5closeEv(ptr noundef nonnull align 8 dereferenceable(1544) %this)
  tail call void @_ZN3zmq23stream_connecter_base_t19add_reconnect_timerEv(ptr noundef nonnull align 8 dereferenceable(1544) %this)
  br label %return

if.end:                                           ; preds = %entry
  call void @_ZN3zmq15get_socket_nameINS_13ipc_address_tEEENSt7__cxx1112basic_stringIcSt11char_traitsIcESaIcEEEiNS_12socket_end_tE(ptr nonnull sret(%"class.std::__cxx11::basic_string") align 8 %ref.tmp, i32 noundef %call, i32 noundef 0)
  invoke void @_ZN3zmq23stream_connecter_base_t13create_engineEiRKNSt7__cxx1112basic_stringIcSt11char_traitsIcESaIcEEE(ptr noundef nonnull align 8 dereferenceable(1544) %this, i32 noundef %call, ptr noundef nonnull align 8 dereferenceable(32) %ref.tmp)
          to label %invoke.cont unwind label %lpad

invoke.cont:                                      ; preds = %if.end
  call void @_ZNSt7__cxx1112basic_stringIcSt11char_traitsIcESaIcEED1Ev(ptr noundef nonnull align 8 dereferenceable(32) %ref.tmp) #9
  br label %return

return:                                           ; preds = %invoke.cont, %if.then
  ret void

lpad:                                             ; preds = %if.end
  %0 = landingpad { ptr, i32 }
          cleanup
  call void @_ZNSt7__cxx1112basic_stringIcSt11char_traitsIcESaIcEED1Ev(ptr noundef nonnull align 8 dereferenceable(32) %ref.tmp) #9
  resume { ptr, i32 } %0
}